---------------------------------------------
PIC ASSEMBLER LISTING
Line    Address Opcode  Instruction
---------------------------------------------
0001    0000            	ORG	0		;DIRECTIVA Origen del programa
0002    0000    1683    	bsf	STATUS,5	;CAMBIO DE BANCO para configurar el Micro
0003    0001    0185    	clrf	TRISA		;Todo en 0(8 bit)
0004    0002    0186    	clrf	TRISB		;Todo en 0(8 bit)
0005    0003    1405    	bsf	PORTA,0		;RA0 EN 0
0006    0004    1485    	bsf	PORTA,1		;RA1 EN 0
0007    0005    1505    	bsf	PORTA,2		;RA2 EN 0
0008    0006    1585    	bsf	PORTA,3		;RA3 EN 1
0009    0007            	
0010    0007            	
0011    0007    1006    	bcf	PORTB,0		;LED 0
0012    0008    1086    	bcf	PORTB,1		;LED 1
0013    0009    1106    	bcf	PORTB,2		;LED 2
0014    000A    1186    	bcf	PORTB,3		;LED 3
0015    000B    1206    	bcf	PORTB,4		;LED 4
0016    000C    1286    	bcf	PORTB,5		;LED 5
0017    000D    1306    	bcf	PORTB,6		;LED 6
0018    000E    1386    	bcf	PORTB,7		;LED 7
0019    000F    1283    	bcf	STATUS,5	;CAMBIO DE BANCO
0020    0010    0185    	clrf	PORTA		;TODO EN 0 
0021    0011    0186    	clrf	PORTB		;TODO EN 0
0022    0012            
0023    0012    2813    	goto	inicio	
0024    0013            
0025    0013    1C05    inicio 	btfss	PORTA,0
0026    0014    2816    	goto	ZC		;no	
0027    0015    281F    	goto	ZX		;si
0028    0016            
0029    0016    1006    ZC	bcf	PORTB,0		;LED = 0
0030    0017    1106    	bcf	PORTB,2		;LED = 0
0031    0018    1206    	bcf	PORTB,4		;LED = 0
0032    0019    1306    	bcf	PORTB,6		;LED = 0
0033    001A    1086    	bcf	PORTB,1		;LED = 0
0034    001B    1186    	bcf	PORTB,3		;LED = 0
0035    001C    1286    	bcf	PORTB,5		;LED = 0
0036    001D    1386    	bcf	PORTB,7		;LED = 0
0037    001E    284D    	goto	inicio2
0038    001F            
0039    001F    1D05    ZX	btfss	PORTA,2
0040    0020    2822    	goto	NN		;no
0041    0021    2823    	goto	NM		;si
0042    0022            	
0043    0022    2838    NN	goto	ZH		;pregunta PORTA,0
0044    0023            
0045    0023    1D85    NM	btfss	PORTA,3	
0046    0024    2826    	goto	NH		;no
0047    0025    282F    	goto	NB		;si
0048    0026            
0049    0026    1006    NH	bcf	PORTB,0		;LED = 0
0050    0027    1106    	bcf	PORTB,2		;LED = 0
0051    0028    1206    	bcf	PORTB,4		;LED = 0
0052    0029    1306    	bcf	PORTB,6		;LED = 0
0053    002A    1086    	bcf	PORTB,1		;LED = 0
0054    002B    1186    	bcf	PORTB,3		;LED = 0
0055    002C    1286    	bcf	PORTB,5		;LED = 0
0056    002D    1386    	bcf	PORTB,7		;LED = 0
0057    002E    2813    	goto	inicio
0058    002F            
0059    002F    1006    NB	bcf	PORTB,0		;LED = O
0060    0030    1086    	bcf	PORTB,1		;LED = 0
0061    0031    1506    	bsf	PORTB,2		;LED = 1
0062    0032    1586    	bsf	PORTB,3		;LED = 1
0063    0033    1606    	bsf	PORTB,4		;LED = 1
0064    0034    1686    	bsf	PORTB,5		;LED = 1
0065    0035    1306    	bcf	PORTB,6		;LED = 0
0066    0036    1386    	bcf	PORTB,7		;LED = 0
0067    0037    2813    	goto	inicio
0068    0038            
0069    0038            
0070    0038    1D85    ZH	btfss	PORTA,3		;inicio
0071    0039    2844    	goto	QR		;no
0072    003A    283B    	goto	QW		;si
0073    003B            
0074    003B    1406    QW	bsf	PORTB,0		;LED = 1
0075    003C    1506    	bsf	PORTB,2		;LED = 1
0076    003D    1606    	bsf	PORTB,4		;LED = 1
0077    003E    1706    	bsf	PORTB,6		;LED = 1
0078    003F    1086    	bcf	PORTB,1		;LED = 0
0079    0040    1186    	bcf	PORTB,3		;LED = 0
0080    0041    1286    	bcf	PORTB,5		;LED = 0
0081    0042    1386    	bcf	PORTB,7		;LED = 0
0082    0043    2813    	goto	inicio
0083    0044            
0084    0044    1006    QR	bcf	PORTB,0		;LED = 0
0085    0045    1106    	bcf	PORTB,2		;LED = 0
0086    0046    1206    	bcf	PORTB,4		;LED = 0
0087    0047    1306    	bcf	PORTB,6		;LED = 0
0088    0048    1086    	bcf	PORTB,1		;LED = 0
0089    0049    1186    	bcf	PORTB,3		;LED = 0
0090    004A    1286    	bcf	PORTB,5		;LED = 0
0091    004B    1386    	bcf	PORTB,7		;LED = 0
0092    004C    2813    	goto	inicio
0093    004D            
0094    004D    1C85    inicio2	btfss	PORTA,1
0095    004E    2850    	goto	DE		;no
0096    004F    2859    	goto	FR		;si
0097    0050            
0098    0050    1006    DE	bcf	PORTB,0		;LED = 0
0099    0051    1086    	bcf	PORTB,1		;LED = 0
0100    0052    1106    	bcf	PORTB,2		;LED = 0
0101    0053    1186    	bcf	PORTB,3		;LED = 0
0102    0054    1206    	bcf	PORTB,4		;LED = 0
0103    0055    1286    	bcf	PORTB,5		;LED = 0
0104    0056    1306    	bcf	PORTB,6		;LED = 0
0105    0057    1386    	bcf	PORTB,7		;LED = 0
0106    0058    286E    	goto	inicio3
0107    0059            
0108    0059    1D85    FR	btfss	PORTA,3
0109    005A    285C    	goto	QE		;no
0110    005B    2865    	goto	QX		;si
0111    005C            
0112    005C            
0113    005C    1006    QE	bcf	PORTB,0		;LED = 0
0114    005D    1086    	bcf	PORTB,1		;LED = 0
0115    005E    1106    	bcf	PORTB,2		;LED = 0
0116    005F    1186    	bcf	PORTB,3		;LED = 0
0117    0060    1206    	bcf	PORTB,4		;LED = 0
0118    0061    1286    	bcf	PORTB,5		;LED = 0
0119    0062    1306    	bcf	PORTB,6		;LED = 0
0120    0063    1386    	bcf	PORTB,7		;LED = 0
0121    0064    284D    	goto	inicio2
0122    0065            
0123    0065    1406    QX	bsf	PORTB,0		;LED = 1
0124    0066    1086    	bcf	PORTB,1		;LED = 0
0125    0067    1106    	bcf	PORTB,2		;LED = 0
0126    0068    1186    	bcf	PORTB,3		;LED = 0
0127    0069    1206    	bcf	PORTB,4		;LED = 0
0128    006A    1286    	bcf	PORTB,5		;LED = 0
0129    006B    1306    	bcf	PORTB,6		;LED = 0
0130    006C    1786    	bsf	PORTB,7		;LED = 1
0131    006D    284D    	goto	inicio2
0132    006E            
0133    006E            
0134    006E    1D05    inicio3	btfss	PORTA,2
0135    006F    2874    	goto	TY		;no
0136    0070    2871    	goto	FV		;si  
0137    0071            
0138    0071    1D85    FV	btfss	PORTA,3
0139    0072    2886    	goto	QB		;no
0140    0073    287D    	goto	QA		;si
0141    0074            
0142    0074    1006    TY	bcf	PORTB,0		;LED = 0
0143    0075    1086    	bcf	PORTB,1		;LED = 0
0144    0076    1106    	bcf	PORTB,2		;LED = 0
0145    0077    1186    	bcf	PORTB,3		;LED = 0
0146    0078    1206    	bcf	PORTB,4		;LED = 0
0147    0079    1286    	bcf	PORTB,5		;LED = 0
0148    007A    1306    	bcf	PORTB,6		;LED = 0
0149    007B    1386    	bcf	PORTB,7		;LED = 0
0150    007C    2813    	goto	inicio
0151    007D            
0152    007D    1406    QA	bsf	PORTB,0		;LED = 1
0153    007E    1486    	bsf	PORTB,1		;LED = 1
0154    007F    1106    	bcf	PORTB,2		;LED = 0
0155    0080    1186    	bcf	PORTB,3		;LED = 0
0156    0081    1206    	bcf	PORTB,4		;LED = 0
0157    0082    1286    	bcf	PORTB,5		;LED = 0
0158    0083    1706    	bsf	PORTB,6		;LED = 1
0159    0084    1786    	bsf	PORTB,7		;LED = 1
0160    0085    286E    	goto	inicio3
0161    0086            
0162    0086    1006    QB	bcf	PORTB,0		;LED = 0
0163    0087    1086    	bcf	PORTB,1		;LED = 0
0164    0088    1106    	bcf	PORTB,2		;LED = 0
0165    0089    1186    	bcf	PORTB,3		;LED = 0
0166    008A    1206    	bcf	PORTB,4		;LED = 0
0167    008B    1286    	bcf	PORTB,5		;LED = 0
0168    008C    1306    	bcf	PORTB,6		;LED = 0
0169    008D    1386    	bcf	PORTB,7		;LED = 0
0170    008E    286E    	goto	inicio3
0171    008F            
0172    008F            
0173    008F            
0174    008F            
0175    008F            
0176    008F            
0177    008F            
0178    008F            
0179    008F            
---------------------------------------------
Number of errors = 0
