---------------------------------------------
PIC ASSEMBLER LISTING
Line    Address Opcode  Instruction
---------------------------------------------
0001    0000            	ORG	0
0002    0000    1683    	BSF	STATUS,5
0003    0001    0185    	CLRF	TRISA
0004    0002    0186    	CLRF	TRISB
0005    0003    3083    	MOVLW	B'10000011'
0006    0004    0081    	MOVWF	OPTION
0007    0005    1405    	BSF	PORTA,0
0008    0006    1485    	BSF	PORTA,1
0009    0007    1505    	BSF	PORTA,2
0010    0008    1585    	BSF	PORTA,3
0011    0009            
0012    0009    1006    	BCF	PORTB,0
0013    000A    1086    	BCF	PORTB,1
0014    000B    1106    	BCF	PORTB,2
0015    000C    1186    	BCF	PORTB,3
0016    000D    1206    	BCF	PORTB,4
0017    000E    1286    	BCF	PORTB,5
0018    000F    1306    	BCF	PORTB,6
0019    0010    1386    	BCF	PORTB,7
0020    0011    1283    	BCF	STATUS,5
0021    0012    0185    	CLRF	PORTA
0022    0013    0186    	CLRF	PORTB
0023    0014    3001    	MOVLW	.1
0024    0015    009B    	MOVWF	1BH		;Permanentes
0025    0016    3002    	MOVLW	.2
0026    0017    009D    	MOVWF	1DH		;Permanentes
0027    0018    3003    	MOVLW	.3
0028    0019    00BA    	MOVWF	3AH		;Permanentes
0029    001A    3004    	MOVLW	.4
0030    001B    00BB    	MOVWF	3BH		;Permanentes
0031    001C    3005    	MOVLW	.5
0032    001D    00CA    	MOVWF	4AH		;Permanentes
0033    001E    3006    	MOVLW	.6
0034    001F    00CB    	MOVWF	4BH		;Permanentes
0035    0020    3007    	MOVLW	.7
0036    0021    00CC    	MOVWF	4CH		;Permanentes
0037    0022            
0038    0022    3001    	MOVLW	.1
0039    0023    009A    	MOVWF	1AH		;el que varia
0040    0024            
0041    0024    1C05    INICIO	BTFSS	PORTA,0
0042    0025    2824    	GOTO	INICIO
0043    0026    1805    BUE	BTFSC	PORTA,0
0044    0027    2826    	GOTO	BUE
0045    0028    1D05    	BTFSS	PORTA,2
0046    0029    2851    	GOTO	DOVO
0047    002A    1905    NIN	BTFSC	PORTA,2
0048    002B    282A    	GOTO	NIN
0049    002C    282D    	GOTO	ALOTRO1
0050    002D            
0051    002D    081B    ALOTRO1	MOVFW	1BH		;.1
0052    002E    021A    	SUBWF	1AH,W
0053    002F    1D03    	BTFSS	STATUS,2
0054    0030    2833    	GOTO	NO1
0055    0031    0A9A    	INCF	1AH,F
0056    0032    2851    	GOTO	DOVO
0057    0033    081D    NO1	MOVFW	1DH		;.2
0058    0034    021A    	SUBWF	1AH,W
0059    0035    1D03    	BTFSS	STATUS,2
0060    0036    2839    	GOTO	NO2
0061    0037    0A9A    	INCF	1AH,F
0062    0038    2851    	GOTO	DOVO
0063    0039    083A    NO2	MOVFW	3AH		;.3
0064    003A    021A    	SUBWF	1AH,W
0065    003B    1D03    	BTFSS	STATUS,2
0066    003C    283F    	GOTO	NO3
0067    003D    0A9A    	INCF	1AH,F
0068    003E    2851    	GOTO	DOVO
0069    003F    083B    NO3	MOVFW	3BH		;.4
0070    0040    021A    	SUBWF	1AH,W
0071    0041    1D03    	BTFSS	STATUS,2
0072    0042    2845    	GOTO	NO4
0073    0043    0A9A    	INCF	1AH,F
0074    0044    2851    	GOTO	DOVO
0075    0045    084A    NO4	MOVFW	4AH		;.5
0076    0046    021A    	SUBWF	1AH,W
0077    0047    1D03    	BTFSS	STATUS,2
0078    0048    284B    	GOTO	NO5
0079    0049    0A9A    	INCF	1AH,F
0080    004A    2851    	GOTO	DOVO
0081    004B    084B    NO5	MOVFW	4BH		;.6
0082    004C    021A    	SUBWF	1AH,W
0083    004D    1D03    	BTFSS	STATUS,2
0084    004E    2851    	GOTO	DOVO
0085    004F    0A9A    	INCF	1AH,F
0086    0050    2851    	GOTO	DOVO
0087    0051            
0088    0051    1D85    DOVO	BTFSS	PORTA,3
0089    0052    287A    	GOTO	PRIRO
0090    0053    1985    NIIN	BTFSC	PORTA,3
0091    0054    2853    	GOTO	NIIN
0092    0055    2856    	GOTO	ALOTRO2
0093    0056    084C    ALOTRO2	MOVFW	4CH		;.7
0094    0057    021A    	SUBWF	1AH,W
0095    0058    1D03    	BTFSS	STATUS,2
0096    0059    285C    	GOTO	NOO1
0097    005A    039A    	DECF	1AH,F
0098    005B    287A    	GOTO	PRIRO
0099    005C    084B    NOO1	MOVFW	4BH		;.6
0100    005D    021A    	SUBWF	1AH,W
0101    005E    1D03    	BTFSS	STATUS,2
0102    005F    2862    	GOTO	NOO2
0103    0060    039A    	DECF	1AH,F
0104    0061    287A    	GOTO	PRIRO
0105    0062    084A    NOO2	MOVFW	4AH		;.5
0106    0063    021A    	SUBWF	1AH,W
0107    0064    1D03    	BTFSS	STATUS,2
0108    0065    2868    	GOTO	NOO3
0109    0066    039A    	DECF	1AH,F
0110    0067    287A    	GOTO	PRIRO
0111    0068    083B    NOO3	MOVFW	3BH		;.4
0112    0069    021A    	SUBWF	1AH,W
0113    006A    1D03    	BTFSS	STATUS,2
0114    006B    286E    	GOTO	NOO4
0115    006C    039A    	DECF	1AH,F
0116    006D    287A    	GOTO	PRIRO
0117    006E    083A    NOO4	MOVFW	3AH		;.3
0118    006F    021A    	SUBWF	1AH,W
0119    0070    1D03    	BTFSS	STATUS,2
0120    0071    2874    	GOTO	NOO5
0121    0072    039A    	DECF	1AH,F
0122    0073    287A    	GOTO	PRIRO
0123    0074    081D    NOO5	MOVFW	1DH		;.2
0124    0075    021A    	SUBWF	1AH,W
0125    0076    1D03    	BTFSS	STATUS,2
0126    0077    287A    	GOTO	PRIRO
0127    0078    039A    	DECF	1AH,F
0128    0079    287A    	GOTO	PRIRO
0129    007A    2826    PRIRO	GOTO	BUE
0130    007B            	END
---------------------------------------------
Number of errors = 0
