CCS PCM C Compiler, Version 4.104, 5967               06-may-16 11:24

               Filename: D:\Documents and Settings\quimey\Escritorio\2 botones\BOTON LED.lst

               ROM used: 34 words (0%)
                         Largest free fragment is 2048
               RAM used: 6 (2%) at main() level
                         6 (2%) worst case
               Stack:    0 locations

*
0000:  MOVLW  00
0001:  MOVWF  0A
0002:  GOTO   004
0003:  NOP
.................... #include <16F877A.h> 
.................... //////// Standard Header file for the PIC16F877A device //////////////// 
.................... #device PIC16F877A 
.................... #list 
....................  
.................... #fuses XT,NOWDT 
.................... #use delay( clock = 4000000 )   // Reloj  de 4 MHz 
.................... #BYTE TRISB = 0x86            // TRISB en 86h. 
.................... #BYTE PORTB = 0x06            // PORTB en 06h. 
.................... #BYTE OPTION_REG = 0x81      //OPTION_REG en 81h. 
.................... void main() { 
0004:  CLRF   04
0005:  BCF    03.7
0006:  MOVLW  1F
0007:  ANDWF  03,F
0008:  BSF    03.5
0009:  BSF    1F.0
000A:  BSF    1F.1
000B:  BSF    1F.2
000C:  BCF    1F.3
000D:  MOVLW  07
000E:  MOVWF  1C
....................    bit_clear(OPTION_REG,7);      // Habilitación Pull-up 
000F:  BCF    01.7
....................    bit_set(TRISB,0);            //B0 como entrada 
0010:  BSF    06.0
....................    bit_set(TRISB,2);            //B2 como entrada    
0011:  BSF    06.2
....................    bit_clear(TRISB,1);         // B1 como salida 
0012:  BCF    06.1
....................    bit_clear(TRISB,3);         // B1 como salida 
0013:  BCF    06.3
....................    bit_clear(PORTB,7);         // apaga LED 
0014:  BCF    03.5
0015:  BCF    06.7
....................    while (1) { 
....................    if (bit_test(portb,0) == 1 )  //Si RB0 es 1 apaga el LED 
0016:  BTFSS  06.0
0017:  GOTO   01A
....................       bit_set(portb,1);                         
0018:  BSF    06.1
....................    else 
0019:  GOTO   01B
....................       bit_clear(portb,1);         //Si RB0=0 no es apretado 
001A:  BCF    06.1
....................    if (bit_test(portb,2) == 1 )  //Si RB2 es 1 apaga el LED 
001B:  BTFSS  06.2
001C:  GOTO   01F
....................       bit_set(portb,3);  
001D:  BSF    06.3
....................    else  
001E:  GOTO   020
....................       bit_clear(portb,3);         //Si RB0=0 no es apretado 
001F:  BCF    06.3
....................    } 
0020:  GOTO   016
.................... }   
0021:  SLEEP

Configuration Fuses:
   Word  1: 3F71   XT NOWDT PUT NODEBUG NOPROTECT BROWNOUT NOLVP NOCPD NOWRT
