---------------------------------------------
PIC ASSEMBLER LISTING
Line    Address Opcode  Instruction
---------------------------------------------
0001    0000            ; Begin
0002    0000            	R0L EQU 0xC
0003    0000            	R0H EQU 0xD
0004    0000            	R1L EQU 0xE
0005    0000            	R1H EQU 0xF
0006    0000            	R2L EQU 0x10
0007    0000            	R2H EQU 0x11
0008    0000            	R3L EQU 0x12
0009    0000            	R3H EQU 0x13
0010    0000            	R4L EQU 0x14
0011    0000            	R4H EQU 0x15
0012    0000            	R5L EQU 0x16
0013    0000            	R5H EQU 0x17
0014    0000            	SO_PORT EQU 0x18
0015    0000            	SO_BIT EQU 0x19
0016    0000            	SO_INTL EQU 0x1A
0017    0000            	SO_INTH EQU 0x1B
0018    0000            	ORG 0x0000
0019    0000    118A    	BCF PCLATH,3
0020    0001    120A    	BCF PCLATH,4
0021    0002    2805    	GOTO L0002
0022    0003            	ORG 0x0004
0023    0004    0009    	RETFIE
0024    0005            L0002:
0025    0005            ; 1: Define SEROUT_DELAYUS = 500
0026    0005            ; 2: Dim i As Byte 'declare a variable
0027    0005            ;       The address of 'i' is 0x1C
0028    0005            	i EQU 0x1C
0029    0005            ; 3:  'WaitMs 1000 'this delay should be used in a real device
0030    0005            ; 4: 
0031    0005            ; 5: For i = 10 To 5 Step -1 'for-next loop
0032    0005    300A    	MOVLW 0x0A
0033    0006    009C    	MOVWF 0x1C
0034    0007            L0003:
0035    0007    3005    	MOVLW 0x05
0036    0008    021C    	SUBWF 0x1C,W
0037    0009    1C03    	BTFSS STATUS,C
0038    000A    2833    	GOTO L0004
0039    000B            ; 6: Serout PORTB.1, 9600, "Number: ", #i, CrLf 'send formatted output to PORTB.1 (TX line of software UART)
0040    000B    1683    	BSF STATUS,RP0
0041    000C    1086    	BCF TRISB,1
0042    000D    1283    	BCF STATUS,RP0
0043    000E    1486    	BSF PORTB,1
0044    000F    3006    	MOVLW 0x06
0045    0010    0098    	MOVWF SO_PORT
0046    0011    3002    	MOVLW 0x02
0047    0012    0099    	MOVWF SO_BIT
0048    0013    305B    	MOVLW 0x5B
0049    0014    009A    	MOVWF SO_INTL
0050    0015    3000    	MOVLW 0x00
0051    0016    009B    	MOVWF SO_INTH
0052    0017    304E    	MOVLW 0x4E
0053    0018    2096    	CALL SO01
0054    0019    3075    	MOVLW 0x75
0055    001A    2096    	CALL SO01
0056    001B    306D    	MOVLW 0x6D
0057    001C    2096    	CALL SO01
0058    001D    3062    	MOVLW 0x62
0059    001E    2096    	CALL SO01
0060    001F    3065    	MOVLW 0x65
0061    0020    2096    	CALL SO01
0062    0021    3072    	MOVLW 0x72
0063    0022    2096    	CALL SO01
0064    0023    303A    	MOVLW 0x3A
0065    0024    2096    	CALL SO01
0066    0025    3020    	MOVLW 0x20
0067    0026    2096    	CALL SO01
0068    0027    081C    	MOVF 0x1C,W
0069    0028    0090    	MOVWF R2L
0070    0029    0191    	CLRF R2H
0071    002A    20B3    	CALL SO21
0072    002B    300D    	MOVLW 0x0D
0073    002C    2096    	CALL SO01
0074    002D    300A    	MOVLW 0x0A
0075    002E    2096    	CALL SO01
0076    002F            ; 7:  'WaitMs 500 'this delay should be used in a real device
0077    002F            ; 8: Next i
0078    002F    3001    	MOVLW 0x01
0079    0030    029C    	SUBWF 0x1C,F
0080    0031    1803    	BTFSC STATUS,C
0081    0032    2807    	GOTO L0003
0082    0033    301F    L0004:	MOVLW 0x1F
0083    0034    0583    	ANDWF STATUS,F
0084    0035            ; 9: 
0085    0035            ; 10: loop: 
0086    0035            L0001:
0087    0035            ; 11: Serin PORTB.2, 9600, i 'wait to receive a byte on PORTB.2 (RX line of software UART)
0088    0035    1683    	BSF STATUS,RP0
0089    0036    1506    	BSF TRISB,2
0090    0037    1283    	BCF STATUS,RP0
0091    0038    3006    	MOVLW 0x06
0092    0039    0098    	MOVWF SO_PORT
0093    003A    3004    	MOVLW 0x04
0094    003B    0099    	MOVWF SO_BIT
0095    003C    305B    	MOVLW 0x5B
0096    003D    009A    	MOVWF SO_INTL
0097    003E    3000    	MOVLW 0x00
0098    003F    009B    	MOVWF SO_INTH
0099    0040    20D2    	CALL SI01
0100    0041    009C    	MOVWF 0x1C
0101    0042            ; 12: Serout PORTB.1, 9600, "Number: ", #i, CrLf 'send formatted output to serial port
0102    0042    1683    	BSF STATUS,RP0
0103    0043    1086    	BCF TRISB,1
0104    0044    1283    	BCF STATUS,RP0
0105    0045    1486    	BSF PORTB,1
0106    0046    3006    	MOVLW 0x06
0107    0047    0098    	MOVWF SO_PORT
0108    0048    3002    	MOVLW 0x02
0109    0049    0099    	MOVWF SO_BIT
0110    004A    305B    	MOVLW 0x5B
0111    004B    009A    	MOVWF SO_INTL
0112    004C    3000    	MOVLW 0x00
0113    004D    009B    	MOVWF SO_INTH
0114    004E    304E    	MOVLW 0x4E
0115    004F    2096    	CALL SO01
0116    0050    3075    	MOVLW 0x75
0117    0051    2096    	CALL SO01
0118    0052    306D    	MOVLW 0x6D
0119    0053    2096    	CALL SO01
0120    0054    3062    	MOVLW 0x62
0121    0055    2096    	CALL SO01
0122    0056    3065    	MOVLW 0x65
0123    0057    2096    	CALL SO01
0124    0058    3072    	MOVLW 0x72
0125    0059    2096    	CALL SO01
0126    005A    303A    	MOVLW 0x3A
0127    005B    2096    	CALL SO01
0128    005C    3020    	MOVLW 0x20
0129    005D    2096    	CALL SO01
0130    005E    081C    	MOVF 0x1C,W
0131    005F    0090    	MOVWF R2L
0132    0060    0191    	CLRF R2H
0133    0061    20B3    	CALL SO21
0134    0062    300D    	MOVLW 0x0D
0135    0063    2096    	CALL SO01
0136    0064    300A    	MOVLW 0x0A
0137    0065    2096    	CALL SO01
0138    0066            ; 13: Goto loop 'loop forever
0139    0066    2835    	GOTO L0001
0140    0067            ; End of program
0141    0067    2867    L0005:	GOTO L0005
0142    0068            ; Division Routine
0143    0068    3010    D001:	MOVLW 0x10
0144    0069    0092    	MOVWF R3L
0145    006A    0191    	CLRF R2H
0146    006B    0190    	CLRF R2L
0147    006C    0D0D    D002:	RLF R0H,W
0148    006D    0D90    	RLF R2L,F
0149    006E    0D91    	RLF R2H,F
0150    006F    080E    	MOVF R1L,W
0151    0070    0290    	SUBWF R2L,F
0152    0071    080F    	MOVF R1H,W
0153    0072    1C03    	BTFSS STATUS,C
0154    0073    0F0F    	INCFSZ R1H,W
0155    0074    0291    	SUBWF R2H,F
0156    0075    1803    	BTFSC STATUS,C
0157    0076    287E    	GOTO D003
0158    0077    080E    	MOVF R1L,W
0159    0078    0790    	ADDWF R2L,F
0160    0079    080F    	MOVF R1H,W
0161    007A    1803    	BTFSC STATUS,C
0162    007B    0F0F    	INCFSZ R1H,W
0163    007C    0791    	ADDWF R2H,F
0164    007D    1003    	BCF STATUS,C
0165    007E    0D8C    D003:	RLF R0L,F
0166    007F    0D8D    	RLF R0H,F
0167    0080    0B92    	DECFSZ R3L,F
0168    0081    286C    	GOTO D002
0169    0082    080C    	MOVF R0L,W
0170    0083    0008    	RETURN
0171    0084            ; Waitus Routine - Word Argument
0172    0084    3010    Y001:	MOVLW 0x10
0173    0085    0294    	SUBWF R4L,F
0174    0086    0100    	CLRW
0175    0087    1C03    	BTFSS STATUS,C
0176    0088    3E01    	ADDLW 0x01
0177    0089    0295    	SUBWF R4H,F
0178    008A    1C03    	BTFSS STATUS,C
0179    008B    0008    	RETURN
0180    008C    288D    	GOTO Y002
0181    008D    300A    Y002:	MOVLW 0x0A
0182    008E    0294    	SUBWF R4L,F
0183    008F    0100    	CLRW
0184    0090    1C03    	BTFSS STATUS,C
0185    0091    3E01    	ADDLW 0x01
0186    0092    0295    	SUBWF R4H,F
0187    0093    1C03    	BTFSS STATUS,C
0188    0094    0008    	RETURN
0189    0095    288D    	GOTO Y002
0190    0096            ; Serout Routine
0191    0096    0096    SO01:	MOVWF R5L
0192    0097    30F4    	MOVLW 0xF4
0193    0098    0094    	MOVWF R4L
0194    0099    3001    	MOVLW 0x01
0195    009A    0095    	MOVWF R4H
0196    009B    2084    	CALL Y001
0197    009C    0818    	MOVF SO_PORT,W
0198    009D    0084    	MOVWF FSR
0199    009E    3009    	MOVLW 0x09
0200    009F    0097    	MOVWF R5H
0201    00A0    1003    	BCF STATUS,C
0202    00A1    20A8    SO02:	CALL SO03
0203    00A2    0C96    	RRF R5L,F
0204    00A3    0B97    	DECFSZ R5H,F
0205    00A4    28A1    	GOTO SO02
0206    00A5    1403    	BSF STATUS,C
0207    00A6    20A8    	CALL SO03
0208    00A7    0008    	RETURN
0209    00A8    0800    SO03:	MOVF INDF,W
0210    00A9    0419    	IORWF SO_BIT,W
0211    00AA    1C03    	BTFSS STATUS,C
0212    00AB    0619    	XORWF SO_BIT,W
0213    00AC    0080    	MOVWF INDF
0214    00AD    081A    	MOVF SO_INTL,W
0215    00AE    0094    	MOVWF R4L
0216    00AF    081B    	MOVF SO_INTH,W
0217    00B0    0095    	MOVWF R4H
0218    00B1    2084    	CALL Y001
0219    00B2    0008    	RETURN
0220    00B3            ; Serout Decimal Conversion Routine
0221    00B3    1793    SO21:	BSF R3H,7
0222    00B4    3027    	MOVLW 0x27
0223    00B5    008F    	MOVWF R1H
0224    00B6    3010    	MOVLW 0x10
0225    00B7    20C4    	CALL SO22
0226    00B8    3003    	MOVLW 0x03
0227    00B9    008F    	MOVWF R1H
0228    00BA    30E8    	MOVLW 0xE8
0229    00BB    20C4    	CALL SO22
0230    00BC    018F    	CLRF R1H
0231    00BD    3064    	MOVLW 0x64
0232    00BE    20C4    	CALL SO22
0233    00BF    018F    	CLRF R1H
0234    00C0    300A    	MOVLW 0x0A
0235    00C1    20C4    	CALL SO22
0236    00C2    0810    	MOVF R2L,W
0237    00C3    28CF    	GOTO SO23
0238    00C4    008E    SO22:	MOVWF R1L
0239    00C5    0811    	MOVF R2H,W
0240    00C6    008D    	MOVWF R0H
0241    00C7    0810    	MOVF R2L,W
0242    00C8    008C    	MOVWF R0L
0243    00C9    2068    	CALL D001
0244    00CA    080C    	MOVF R0L,W
0245    00CB    1D03    	BTFSS STATUS,Z
0246    00CC    1393    	BCF R3H,7
0247    00CD    1B93    	BTFSC R3H,7
0248    00CE    0008    	RETURN
0249    00CF    3E30    SO23:	ADDLW 0x30
0250    00D0    2096    	CALL SO01
0251    00D1    0008    	RETURN
0252    00D2            ; Serin Routine
0253    00D2    20F1    SI01:	CALL SI03
0254    00D3    1803    	BTFSC STATUS,C
0255    00D4    28D2    	GOTO SI01
0256    00D5    081A    	MOVF SO_INTL,W
0257    00D6    0094    	MOVWF R4L
0258    00D7    081B    	MOVF SO_INTH,W
0259    00D8    0095    	MOVWF R4H
0260    00D9    0C95    	RRF R4H,F
0261    00DA    0C94    	RRF R4L,F
0262    00DB    1003    	BCF STATUS,C
0263    00DC    0C95    	RRF R4H,F
0264    00DD    0C94    	RRF R4L,F
0265    00DE    2084    	CALL Y001
0266    00DF    3008    	MOVLW 0x08
0267    00E0    0097    	MOVWF R5H
0268    00E1    081A    SI02:	MOVF SO_INTL,W
0269    00E2    0094    	MOVWF R4L
0270    00E3    081B    	MOVF SO_INTH,W
0271    00E4    0095    	MOVWF R4H
0272    00E5    2084    	CALL Y001
0273    00E6    20F1    	CALL SI03
0274    00E7    0C96    	RRF R5L,F
0275    00E8    0B97    	DECFSZ R5H,F
0276    00E9    28E1    	GOTO SI02
0277    00EA    081A    	MOVF SO_INTL,W
0278    00EB    0094    	MOVWF R4L
0279    00EC    081B    	MOVF SO_INTH,W
0280    00ED    0095    	MOVWF R4H
0281    00EE    2084    	CALL Y001
0282    00EF    0816    	MOVF R5L,W
0283    00F0    0008    	RETURN
0284    00F1    0818    SI03:	MOVF SO_PORT,W
0285    00F2    0084    	MOVWF FSR
0286    00F3    0819    	MOVF SO_BIT,W
0287    00F4    0500    	ANDWF INDF,W
0288    00F5    3EFF    	ADDLW 0xFF
0289    00F6    0008    	RETURN
0290    00F7            ; End of listing
0291    00F7            	END
---------------------------------------------
Number of errors = 0
